; Function Attrs: null_pointer_is_valid sspstrong uwtable
define internal noundef zeroext i1 @dissect_zusim_parameter(ptr noundef %0, ptr noundef readonly captures(none) %1, ptr noundef %2, i32 noundef %3, i32 noundef %4, i16 noundef zeroext %5, ptr noundef readonly captures(none) %6, i32 noundef %7, i32 noundef %8, ptr readnone captures(none) %9, ptr readnone captures(none) %10) #0 {
  %12 = icmp eq i32 %4, 1
  %13 = icmp eq i16 %5, 58
  %or.cond = and i1 %12, %13
  %.not = icmp eq i32 %7, 0
  %or.cond13 = and i1 %or.cond, %.not
  br i1 %or.cond13, label %14, label %28

14:                                               ; preds = %11
  %15 = getelementptr inbounds nuw i8, ptr %1, i64 408
  %16 = load ptr, ptr %15, align 8
  %17 = add i32 %8, 1
  %18 = sext i32 %17 to i64
  %19 = tail call noalias ptr @wmem_alloc(ptr noundef %16, i64 noundef %18) #12
  %20 = sext i32 %8 to i64
  %21 = icmp ne i32 %17, -1
  tail call void @llvm.assume(i1 %21)
  %22 = tail call ptr @__memcpy_chk(ptr noundef %19, ptr noundef readonly %6, i64 noundef range(i64 -2147483648, 2147483648) %20, i64 noundef %18) #13, !alias.scope !144
  %23 = getelementptr i8, ptr %19, i64 %20
  store i8 0, ptr %23, align 1
  %24 = tail call i64 @g_ascii_strtoull(ptr noundef %19, ptr noundef null, i32 noundef 10)
  %25 = trunc i64 %24 to i32
  %26 = load i32, ptr @hf_zusim_usim_card, align 4
  %27 = tail call ptr @proto_tree_add_uint(ptr noundef %2, i32 noundef %26, ptr noundef %0, i32 noundef %3, i32 noundef %8, i32 noundef %25)
  br label %28

28:                                               ; preds = %11, %14
  ret i1 %or.cond13
}